target datalayout = "e-m:e-p270:32:32-p271:32:32-p272:64:64-i64:64-i128:128-f80:128-n8:16:32:64-S128"
target triple = "x86_64-pc-linux-gnu"

; Function Attrs: nounwind uwtable
define i32 @Map_CalculatePhase(ptr noundef %0, i32 noundef %1, i32 noundef %2, i32 noundef %3) #0 {
  %5 = alloca ptr, align 8
  %6 = alloca i32, align 4
  %7 = alloca i32, align 4
  %8 = alloca i32, align 4
  %9 = alloca i32, align 4
  %10 = alloca i32, align 4
  store ptr %0, ptr %5, align 8, !tbaa !38
  store i32 %1, ptr %6, align 4, !tbaa !10
  store i32 %2, ptr %7, align 4, !tbaa !10
  store i32 %3, ptr %8, align 4, !tbaa !10
  call void @llvm.lifetime.start.p0(i64 4, ptr %9) #9
  call void @llvm.lifetime.start.p0(i64 4, ptr %10) #9
  store i32 0, ptr %9, align 4, !tbaa !10
  store i32 1, ptr %10, align 4, !tbaa !10
  br label %11

11:                                               ; preds = %44, %4
  %12 = load i32, ptr %9, align 4, !tbaa !10
  %13 = load i32, ptr %6, align 4, !tbaa !10
  %14 = icmp slt i32 %12, %13
  br i1 %14, label %15, label %49

15:                                               ; preds = %11
  %16 = load i32, ptr %8, align 4, !tbaa !10
  %17 = load i32, ptr %10, align 4, !tbaa !10
  %18 = and i32 %16, %17
  %19 = icmp ne i32 %18, 0
  br i1 %19, label %20, label %43

20:                                               ; preds = %15
  %21 = load i32, ptr %7, align 4, !tbaa !10
  %22 = load ptr, ptr %5, align 8, !tbaa !38
  %23 = load i32, ptr %9, align 4, !tbaa !10
  %24 = sext i32 %23 to i64
  %25 = getelementptr inbounds [2 x i32], ptr %22, i64 %24
  %26 = getelementptr inbounds [2 x i32], ptr %25, i64 0, i64 0
  %27 = load i32, ptr %26, align 4, !tbaa !10
  %28 = xor i32 %27, -1
  %29 = and i32 %21, %28
  %30 = load i32, ptr %10, align 4, !tbaa !10
  %31 = shl i32 %29, %30
  %32 = load i32, ptr %7, align 4, !tbaa !10
  %33 = load ptr, ptr %5, align 8, !tbaa !38
  %34 = load i32, ptr %9, align 4, !tbaa !10
  %35 = sext i32 %34 to i64
  %36 = getelementptr inbounds [2 x i32], ptr %33, i64 %35
  %37 = getelementptr inbounds [2 x i32], ptr %36, i64 0, i64 0
  %38 = load i32, ptr %37, align 4, !tbaa !10
  %39 = and i32 %32, %38
  %40 = load i32, ptr %10, align 4, !tbaa !10
  %41 = lshr i32 %39, %40
  %42 = or i32 %31, %41
  store i32 %42, ptr %7, align 4, !tbaa !10
  br label %43

43:                                               ; preds = %20, %15
  br label %44

44:                                               ; preds = %43
  %45 = load i32, ptr %9, align 4, !tbaa !10
  %46 = add nsw i32 %45, 1
  store i32 %46, ptr %9, align 4, !tbaa !10
  %47 = load i32, ptr %10, align 4, !tbaa !10
  %48 = shl i32 %47, 1
  store i32 %48, ptr %10, align 4, !tbaa !10
  br label %11, !llvm.loop !87

49:                                               ; preds = %11
  %50 = load i32, ptr %7, align 4, !tbaa !10
  call void @llvm.lifetime.end.p0(i64 4, ptr %10) #9
  call void @llvm.lifetime.end.p0(i64 4, ptr %9) #9
  ret i32 %50
}