; Function Attrs: nofree norecurse nosync nounwind memory(argmem: read) uwtable
define i32 @Map_CalculatePhase(ptr noundef readonly captures(none) %0, i32 noundef %1, i32 noundef %2, i32 noundef %3) local_unnamed_addr #12 {
  %5 = icmp sgt i32 %1, 0
  br i1 %5, label %.lr.ph.preheader, label %._crit_edge

.lr.ph.preheader:                                 ; preds = %4
  %wide.trip.count = zext nneg i32 %1 to i64
  br label %.lr.ph

.lr.ph:                                           ; preds = %.lr.ph.preheader, %16
  %indvars.iv = phi i64 [ 0, %.lr.ph.preheader ], [ %indvars.iv.next, %16 ]
  %.018 = phi i32 [ 1, %.lr.ph.preheader ], [ %17, %16 ]
  %.01516 = phi i32 [ %2, %.lr.ph.preheader ], [ %.1, %16 ]
  %6 = and i32 %.018, %3
  %.not = icmp eq i32 %6, 0
  br i1 %.not, label %16, label %7

7:                                                ; preds = %.lr.ph
  %8 = getelementptr inbounds nuw [2 x i32], ptr %0, i64 %indvars.iv
  %9 = load i32, ptr %8, align 4, !tbaa !24
  %10 = xor i32 %9, -1
  %11 = and i32 %.01516, %10
  %12 = shl i32 %11, %.018
  %13 = and i32 %9, %.01516
  %14 = lshr i32 %13, %.018
  %15 = or i32 %12, %14
  br label %16

16:                                               ; preds = %.lr.ph, %7
  %.1 = phi i32 [ %15, %7 ], [ %.01516, %.lr.ph ]
  %indvars.iv.next = add nuw nsw i64 %indvars.iv, 1
  %17 = shl i32 %.018, 1
  %exitcond.not = icmp eq i64 %indvars.iv.next, %wide.trip.count
  br i1 %exitcond.not, label %._crit_edge, label %.lr.ph, !llvm.loop !68

._crit_edge:                                      ; preds = %16, %4
  %.015.lcssa = phi i32 [ %2, %4 ], [ %.1, %16 ]
  ret i32 %.015.lcssa
}